target datalayout = "e-m:e-p270:32:32-p271:32:32-p272:64:64-i64:64-i128:128-f80:128-n8:16:32:64-S128"
target triple = "x86_64-pc-linux-gnu"

%struct.grep_pat = type { ptr, ptr, i32, i32, ptr, i64, i32, %struct.re_pattern_buffer, ptr, ptr, ptr, ptr, ptr, i32, i8 }
%struct.re_pattern_buffer = type { ptr, i64, i64, i64, ptr, ptr, i64, i8 }
%struct.grep_expr = type { i32, i32, %union.anon }
%union.anon = type { %struct.anon }
%struct.anon = type { ptr, ptr }

@.str.34 = private unnamed_addr constant [28 x i8] c"not a pattern expression %s\00", align 1

; Function Attrs: nounwind uwtable
define internal ptr @grep_binexp(i32 noundef %0, ptr noundef %1, ptr noundef %2) #0 {
  %4 = alloca i32, align 4
  %5 = alloca ptr, align 8
  %6 = alloca ptr, align 8
  %7 = alloca ptr, align 8
  store i32 %0, ptr %4, align 4, !tbaa !33
  store ptr %1, ptr %5, align 8, !tbaa !62
  store ptr %2, ptr %6, align 8, !tbaa !62
  call void @llvm.lifetime.start.p0(i64 8, ptr %7) #11
  %8 = call ptr @xcalloc(i64 noundef 1, i64 noundef 24)
  store ptr %8, ptr %7, align 8, !tbaa !62
  %9 = load i32, ptr %4, align 4, !tbaa !33
  %10 = load ptr, ptr %7, align 8, !tbaa !62
  %11 = getelementptr inbounds nuw %struct.grep_expr, ptr %10, i32 0, i32 0
  store i32 %9, ptr %11, align 8, !tbaa !76
  %12 = load ptr, ptr %5, align 8, !tbaa !62
  %13 = load ptr, ptr %7, align 8, !tbaa !62
  %14 = getelementptr inbounds nuw %struct.grep_expr, ptr %13, i32 0, i32 2
  %15 = getelementptr inbounds nuw %struct.anon, ptr %14, i32 0, i32 0
  store ptr %12, ptr %15, align 8, !tbaa !36
  %16 = load ptr, ptr %6, align 8, !tbaa !62
  %17 = load ptr, ptr %7, align 8, !tbaa !62
  %18 = getelementptr inbounds nuw %struct.grep_expr, ptr %17, i32 0, i32 2
  %19 = getelementptr inbounds nuw %struct.anon, ptr %18, i32 0, i32 1
  store ptr %16, ptr %19, align 8, !tbaa !36
  %20 = load ptr, ptr %7, align 8, !tbaa !62
  call void @llvm.lifetime.end.p0(i64 8, ptr %7) #11
  ret ptr %20
}

; Function Attrs: nounwind uwtable
define internal ptr @grep_or_expr(ptr noundef %0, ptr noundef %1) #0 {
  %3 = alloca ptr, align 8
  %4 = alloca ptr, align 8
  store ptr %0, ptr %3, align 8, !tbaa !62
  store ptr %1, ptr %4, align 8, !tbaa !62
  %5 = load ptr, ptr %3, align 8, !tbaa !62
  %6 = load ptr, ptr %4, align 8, !tbaa !62
  %7 = call ptr @grep_binexp(i32 noundef 4, ptr noundef %5, ptr noundef %6)
  ret ptr %7
}

; Function Attrs: nounwind uwtable
define internal ptr @compile_pattern_or(ptr noundef %0) #0 {
  %2 = alloca ptr, align 8
  %3 = alloca ptr, align 8
  %4 = alloca ptr, align 8
  %5 = alloca ptr, align 8
  %6 = alloca ptr, align 8
  %7 = alloca i32, align 4
  store ptr %0, ptr %3, align 8, !tbaa !58
  call void @llvm.lifetime.start.p0(i64 8, ptr %4) #11
  call void @llvm.lifetime.start.p0(i64 8, ptr %5) #11
  call void @llvm.lifetime.start.p0(i64 8, ptr %6) #11
  %8 = load ptr, ptr %3, align 8, !tbaa !58
  %9 = call ptr @compile_pattern_and(ptr noundef %8)
  store ptr %9, ptr %5, align 8, !tbaa !62
  %10 = load ptr, ptr %3, align 8, !tbaa !58
  %11 = load ptr, ptr %10, align 8, !tbaa !44
  store ptr %11, ptr %4, align 8, !tbaa !44
  %12 = load ptr, ptr %5, align 8, !tbaa !62
  %13 = icmp ne ptr %12, null
  br i1 %13, label %14, label %35

14:                                               ; preds = %1
  %15 = load ptr, ptr %4, align 8, !tbaa !44
  %16 = icmp ne ptr %15, null
  br i1 %16, label %17, label %35

17:                                               ; preds = %14
  %18 = load ptr, ptr %4, align 8, !tbaa !44
  %19 = getelementptr inbounds nuw %struct.grep_pat, ptr %18, i32 0, i32 3
  %20 = load i32, ptr %19, align 4, !tbaa !54
  %21 = icmp ne i32 %20, 5
  br i1 %21, label %22, label %35

22:                                               ; preds = %17
  %23 = load ptr, ptr %3, align 8, !tbaa !58
  %24 = call ptr @compile_pattern_or(ptr noundef %23)
  store ptr %24, ptr %6, align 8, !tbaa !62
  %25 = load ptr, ptr %6, align 8, !tbaa !62
  %26 = icmp ne ptr %25, null
  br i1 %26, label %31, label %27

27:                                               ; preds = %22
  %28 = load ptr, ptr %4, align 8, !tbaa !44
  %29 = getelementptr inbounds nuw %struct.grep_pat, ptr %28, i32 0, i32 4
  %30 = load ptr, ptr %29, align 8, !tbaa !46
  call void (ptr, ...) @die(ptr noundef @.str.34, ptr noundef %30) #13
  unreachable

31:                                               ; preds = %22
  %32 = load ptr, ptr %5, align 8, !tbaa !62
  %33 = load ptr, ptr %6, align 8, !tbaa !62
  %34 = call ptr @grep_or_expr(ptr noundef %32, ptr noundef %33)
  store ptr %34, ptr %2, align 8
  store i32 1, ptr %7, align 4
  br label %37

35:                                               ; preds = %17, %14, %1
  %36 = load ptr, ptr %5, align 8, !tbaa !62
  store ptr %36, ptr %2, align 8
  store i32 1, ptr %7, align 4
  br label %37

37:                                               ; preds = %35, %31
  call void @llvm.lifetime.end.p0(i64 8, ptr %6) #11
  call void @llvm.lifetime.end.p0(i64 8, ptr %5) #11
  call void @llvm.lifetime.end.p0(i64 8, ptr %4) #11
  %38 = load ptr, ptr %2, align 8
  ret ptr %38
}