; Function Attrs: nounwind uwtable
define internal fastcc ptr @compile_pattern_or(ptr noundef nonnull captures(none) %0) unnamed_addr #0 {
  %2 = tail call fastcc ptr @compile_pattern_and(ptr noundef %0)
  %3 = load ptr, ptr %0, align 8, !tbaa !43
  %4 = icmp ne ptr %2, null
  %5 = icmp ne ptr %3, null
  %or.cond = select i1 %4, i1 %5, i1 false
  br i1 %or.cond, label %6, label %18

6:                                                ; preds = %1
  %7 = getelementptr inbounds nuw i8, ptr %3, i64 20
  %8 = load i32, ptr %7, align 4, !tbaa !39
  %.not = icmp eq i32 %8, 5
  br i1 %.not, label %18, label %9

9:                                                ; preds = %6
  %10 = tail call fastcc ptr @compile_pattern_or(ptr noundef %0)
  %.not16 = icmp eq ptr %10, null
  br i1 %.not16, label %11, label %14

11:                                               ; preds = %9
  %12 = getelementptr inbounds nuw i8, ptr %3, i64 24
  %13 = load ptr, ptr %12, align 8, !tbaa !30
  tail call void (ptr, ...) @die(ptr noundef nonnull @.str.34, ptr noundef %13) #20
  unreachable

14:                                               ; preds = %9
  %15 = tail call ptr @xcalloc(i64 noundef 1, i64 noundef 24) #18
  store i32 4, ptr %15, align 8, !tbaa !55
  %16 = getelementptr inbounds nuw i8, ptr %15, i64 8
  store ptr %2, ptr %16, align 8, !tbaa !23
  %17 = getelementptr inbounds nuw i8, ptr %15, i64 16
  store ptr %10, ptr %17, align 8, !tbaa !23
  br label %18

18:                                               ; preds = %1, %6, %14
  %.0 = phi ptr [ %15, %14 ], [ %2, %6 ], [ %2, %1 ]
  ret ptr %.0
}